target datalayout = "e-m:e-p270:32:32-p271:32:32-p272:64:64-i64:64-i128:128-f80:128-n8:16:32:64-S128"
target triple = "x86_64-pc-linux-gnu"

%struct._zval_struct = type { %union._zend_value, %union.anon, %union.anon.2 }
%union._zend_value = type { i64 }
%union.anon = type { i32 }
%union.anon.2 = type { i32 }
%struct.anon.0 = type { i8, i8, %union.anon.1 }
%union.anon.1 = type { i16 }
%struct._spl_pqueue_elem = type { %struct._zval_struct, %struct._zval_struct }

; Function Attrs: nounwind uwtable
define internal void @spl_ptr_heap_pqueue_elem_ctor(ptr noundef %0) #0 {
  %2 = alloca ptr, align 8
  %3 = alloca ptr, align 8
  %4 = alloca ptr, align 8
  %5 = alloca ptr, align 8
  %6 = alloca ptr, align 8
  %7 = alloca ptr, align 8
  store ptr %0, ptr %6, align 8
  %8 = load ptr, ptr %6, align 8
  store ptr %8, ptr %7, align 8
  br label %9

9:                                                ; preds = %1
  %10 = load ptr, ptr %7, align 8
  %11 = getelementptr inbounds %struct._spl_pqueue_elem, ptr %10, i32 0, i32 0
  %12 = getelementptr inbounds %struct._zval_struct, ptr %11, i32 0, i32 1
  %13 = getelementptr inbounds %struct.anon.0, ptr %12, i32 0, i32 1
  %14 = load i8, ptr %13, align 1
  %15 = zext i8 %14 to i32
  %16 = icmp ne i32 %15, 0
  br i1 %16, label %17, label %31

17:                                               ; preds = %9
  %18 = load ptr, ptr %7, align 8
  %19 = getelementptr inbounds %struct._spl_pqueue_elem, ptr %18, i32 0, i32 0
  store ptr %19, ptr %4, align 8
  %20 = load ptr, ptr %4, align 8
  %21 = getelementptr inbounds %struct._zval_struct, ptr %20, i32 0, i32 1
  %22 = getelementptr inbounds %struct.anon.0, ptr %21, i32 0, i32 1
  %23 = load i8, ptr %22, align 1
  %24 = zext i8 %23 to i32
  %25 = icmp ne i32 %24, 0
  call void @llvm.assume(i1 %25)
  %26 = load ptr, ptr %4, align 8
  %27 = load ptr, ptr %26, align 8
  store ptr %27, ptr %3, align 8
  %28 = load ptr, ptr %3, align 8
  %29 = load i32, ptr %28, align 4
  %30 = add i32 %29, 1
  store i32 %30, ptr %28, align 4
  br label %31

31:                                               ; preds = %17, %9
  br label %32

32:                                               ; preds = %31
  br label %33

33:                                               ; preds = %32
  %34 = load ptr, ptr %7, align 8
  %35 = getelementptr inbounds %struct._spl_pqueue_elem, ptr %34, i32 0, i32 1
  %36 = getelementptr inbounds %struct._zval_struct, ptr %35, i32 0, i32 1
  %37 = getelementptr inbounds %struct.anon.0, ptr %36, i32 0, i32 1
  %38 = load i8, ptr %37, align 1
  %39 = zext i8 %38 to i32
  %40 = icmp ne i32 %39, 0
  br i1 %40, label %41, label %55

41:                                               ; preds = %33
  %42 = load ptr, ptr %7, align 8
  %43 = getelementptr inbounds %struct._spl_pqueue_elem, ptr %42, i32 0, i32 1
  store ptr %43, ptr %5, align 8
  %44 = load ptr, ptr %5, align 8
  %45 = getelementptr inbounds %struct._zval_struct, ptr %44, i32 0, i32 1
  %46 = getelementptr inbounds %struct.anon.0, ptr %45, i32 0, i32 1
  %47 = load i8, ptr %46, align 1
  %48 = zext i8 %47 to i32
  %49 = icmp ne i32 %48, 0
  call void @llvm.assume(i1 %49)
  %50 = load ptr, ptr %5, align 8
  %51 = load ptr, ptr %50, align 8
  store ptr %51, ptr %2, align 8
  %52 = load ptr, ptr %2, align 8
  %53 = load i32, ptr %52, align 4
  %54 = add i32 %53, 1
  store i32 %54, ptr %52, align 4
  br label %55

55:                                               ; preds = %41, %33
  br label %56

56:                                               ; preds = %55
  ret void
}