; Function Attrs: mustprogress nofree norecurse nosync nounwind willreturn memory(readwrite, inaccessiblemem: none) uwtable
define internal void @spl_ptr_heap_pqueue_elem_ctor(ptr nocapture noundef readonly %0) #7 {
  %2 = getelementptr inbounds i8, ptr %0, i64 9
  %3 = load i8, ptr %2, align 1
  %.not = icmp eq i8 %3, 0
  br i1 %.not, label %8, label %4

4:                                                ; preds = %1
  %5 = load ptr, ptr %0, align 8
  %6 = load i32, ptr %5, align 4
  %7 = add i32 %6, 1
  store i32 %7, ptr %5, align 4
  br label %8

8:                                                ; preds = %4, %1
  %9 = getelementptr inbounds i8, ptr %0, i64 25
  %10 = load i8, ptr %9, align 1
  %.not11 = icmp eq i8 %10, 0
  br i1 %.not11, label %16, label %11

11:                                               ; preds = %8
  %12 = getelementptr inbounds i8, ptr %0, i64 16
  %13 = load ptr, ptr %12, align 8
  %14 = load i32, ptr %13, align 4
  %15 = add i32 %14, 1
  store i32 %15, ptr %13, align 4
  br label %16

16:                                               ; preds = %8, %11
  ret void
}